target datalayout = "e-m:e-p270:32:32-p271:32:32-p272:64:64-i64:64-i128:128-f80:128-n8:16:32:64-S128"
target triple = "x86_64-pc-linux-gnu"

%class.RecVolumes5 = type { %class.Array.8, ptr, ptr, ptr, ptr, i64, i32, i32, i32, ptr, i32, i32, ptr }
%class.Array.8 = type { ptr, i64, i64, i64 }
%struct.RecRSThreadData = type { ptr, ptr, i8, i32, ptr, i64, i64 }
%struct.RecVolItem = type { ptr, [2048 x i32], i32, i64, i8, i8 }

; Function Attrs: noreturn nounwind uwtable
define linkonce_odr hidden void @__clang_call_terminate(ptr noundef %0) #8 comdat {
  %2 = call ptr @__cxa_begin_catch(ptr %0) #11
  call void @_ZSt9terminatev() #14
  unreachable
}

; Function Attrs: mustprogress nounwind uwtable
define linkonce_odr void @_ZN5ArrayI10RecVolItemED2Ev(ptr noundef nonnull align 8 dereferenceable(32) %0) unnamed_addr #2 comdat align 2 {
  %2 = alloca ptr, align 8
  store ptr %0, ptr %2, align 8
  %3 = load ptr, ptr %2, align 8
  %4 = getelementptr inbounds %class.Array.8, ptr %3, i32 0, i32 0
  %5 = load ptr, ptr %4, align 8
  %6 = icmp ne ptr %5, null
  br i1 %6, label %7, label %10

7:                                                ; preds = %1
  %8 = getelementptr inbounds %class.Array.8, ptr %3, i32 0, i32 0
  %9 = load ptr, ptr %8, align 8
  call void @free(ptr noundef %9) #11
  br label %10

10:                                               ; preds = %7, %1
  ret void
}

; Function Attrs: mustprogress nounwind uwtable
define linkonce_odr noundef nonnull align 8 dereferenceable(8224) ptr @_ZNK5ArrayI10RecVolItemEixEm(ptr noundef nonnull align 8 dereferenceable(32) %0, i64 noundef %1) #2 comdat align 2 {
  %3 = alloca ptr, align 8
  %4 = alloca i64, align 8
  store ptr %0, ptr %3, align 8
  store i64 %1, ptr %4, align 8
  %5 = load ptr, ptr %3, align 8
  %6 = getelementptr inbounds %class.Array.8, ptr %5, i32 0, i32 0
  %7 = load ptr, ptr %6, align 8
  %8 = load i64, ptr %4, align 8
  %9 = getelementptr inbounds %struct.RecVolItem, ptr %7, i64 %8
  ret ptr %9
}

; Function Attrs: mustprogress nounwind uwtable
define linkonce_odr noundef i64 @_ZN5ArrayI10RecVolItemE4SizeEv(ptr noundef nonnull align 8 dereferenceable(32) %0) #2 comdat align 2 {
  %2 = alloca ptr, align 8
  store ptr %0, ptr %2, align 8
  %3 = load ptr, ptr %2, align 8
  %4 = getelementptr inbounds %class.Array.8, ptr %3, i32 0, i32 1
  %5 = load i64, ptr %4, align 8
  ret i64 %5
}

; Function Attrs: mustprogress nounwind uwtable
define void @_ZN11RecVolumes5D2Ev(ptr noundef nonnull align 8 dereferenceable(112) %0) unnamed_addr #2 align 2 personality ptr @__gxx_personality_v0 {
  %2 = alloca ptr, align 8
  %3 = alloca i32, align 4
  %4 = alloca i32, align 4
  store ptr %0, ptr %2, align 8
  %5 = load ptr, ptr %2, align 8
  %6 = getelementptr inbounds %class.RecVolumes5, ptr %5, i32 0, i32 3
  %7 = load ptr, ptr %6, align 8
  %8 = icmp eq ptr %7, null
  br i1 %8, label %10, label %9

9:                                                ; preds = %1
  call void @_ZdaPv(ptr noundef %7) #13
  br label %10

10:                                               ; preds = %9, %1
  %11 = getelementptr inbounds %class.RecVolumes5, ptr %5, i32 0, i32 1
  %12 = load ptr, ptr %11, align 8
  %13 = icmp eq ptr %12, null
  br i1 %13, label %15, label %14

14:                                               ; preds = %10
  call void @_ZdaPv(ptr noundef %12) #13
  br label %15

15:                                               ; preds = %14, %10
  store i32 0, ptr %3, align 4
  br label %16

16:                                               ; preds = %37, %15
  %17 = load i32, ptr %3, align 4
  %18 = zext i32 %17 to i64
  %19 = getelementptr inbounds %class.RecVolumes5, ptr %5, i32 0, i32 0
  %20 = invoke noundef i64 @_ZN5ArrayI10RecVolItemE4SizeEv(ptr noundef nonnull align 8 dereferenceable(32) %19)
          to label %21 unwind label %67

21:                                               ; preds = %16
  %22 = icmp ult i64 %18, %20
  br i1 %22, label %23, label %40

23:                                               ; preds = %21
  %24 = getelementptr inbounds %class.RecVolumes5, ptr %5, i32 0, i32 0
  %25 = load i32, ptr %3, align 4
  %26 = zext i32 %25 to i64
  %27 = invoke noundef nonnull align 8 dereferenceable(8224) ptr @_ZNK5ArrayI10RecVolItemEixEm(ptr noundef nonnull align 8 dereferenceable(32) %24, i64 noundef %26)
          to label %28 unwind label %67

28:                                               ; preds = %23
  %29 = getelementptr inbounds %struct.RecVolItem, ptr %27, i32 0, i32 0
  %30 = load ptr, ptr %29, align 8
  %31 = icmp eq ptr %30, null
  br i1 %31, label %36, label %32

32:                                               ; preds = %28
  %33 = load ptr, ptr %30, align 8
  %34 = getelementptr inbounds ptr, ptr %33, i64 1
  %35 = load ptr, ptr %34, align 8
  call void %35(ptr noundef nonnull align 8 dereferenceable(8256) %30) #11
  br label %36

36:                                               ; preds = %32, %28
  br label %37

37:                                               ; preds = %36
  %38 = load i32, ptr %3, align 4
  %39 = add i32 %38, 1
  store i32 %39, ptr %3, align 4
  br label %16, !llvm.loop !35

40:                                               ; preds = %21
  store i32 0, ptr %4, align 4
  br label %41

41:                                               ; preds = %57, %40
  %42 = load i32, ptr %4, align 4
  %43 = getelementptr inbounds %class.RecVolumes5, ptr %5, i32 0, i32 11
  %44 = load i32, ptr %43, align 4
  %45 = icmp ult i32 %42, %44
  br i1 %45, label %46, label %60

46:                                               ; preds = %41
  %47 = getelementptr inbounds %class.RecVolumes5, ptr %5, i32 0, i32 12
  %48 = load ptr, ptr %47, align 8
  %49 = load i32, ptr %4, align 4
  %50 = zext i32 %49 to i64
  %51 = getelementptr inbounds %struct.RecRSThreadData, ptr %48, i64 %50
  %52 = getelementptr inbounds %struct.RecRSThreadData, ptr %51, i32 0, i32 1
  %53 = load ptr, ptr %52, align 8
  %54 = icmp eq ptr %53, null
  br i1 %54, label %56, label %55

55:                                               ; preds = %46
  call void @_ZN9RSCoder16D1Ev(ptr noundef nonnull align 8 dereferenceable(64) %53) #11
  call void @_ZdlPv(ptr noundef %53) #13
  br label %56

56:                                               ; preds = %55, %46
  br label %57

57:                                               ; preds = %56
  %58 = load i32, ptr %4, align 4
  %59 = add i32 %58, 1
  store i32 %59, ptr %4, align 4
  br label %41, !llvm.loop !36

60:                                               ; preds = %41
  %61 = getelementptr inbounds %class.RecVolumes5, ptr %5, i32 0, i32 12
  %62 = load ptr, ptr %61, align 8
  %63 = icmp eq ptr %62, null
  br i1 %63, label %65, label %64

64:                                               ; preds = %60
  call void @_ZdaPv(ptr noundef %62) #13
  br label %65

65:                                               ; preds = %64, %60
  %66 = getelementptr inbounds %class.RecVolumes5, ptr %5, i32 0, i32 0
  call void @_ZN5ArrayI10RecVolItemED2Ev(ptr noundef nonnull align 8 dereferenceable(32) %66) #11
  ret void

67:                                               ; preds = %23, %16
  %68 = landingpad { ptr, i32 }
          catch ptr null
  %69 = extractvalue { ptr, i32 } %68, 0
  call void @__clang_call_terminate(ptr %69) #14
  unreachable
}