; Function Attrs: mustprogress nounwind uwtable
define void @_ZN11RecVolumes5D2Ev(ptr nocapture noundef nonnull readonly align 8 dereferenceable(112) %0) unnamed_addr #2 align 2 personality ptr @__gxx_personality_v0 {
  %2 = getelementptr inbounds i8, ptr %0, i64 48
  %3 = load ptr, ptr %2, align 8
  %4 = icmp eq ptr %3, null
  br i1 %4, label %6, label %5

5:                                                ; preds = %1
  tail call void @_ZdaPv(ptr noundef nonnull %3) #16
  br label %6

6:                                                ; preds = %5, %1
  %7 = getelementptr inbounds i8, ptr %0, i64 32
  %8 = load ptr, ptr %7, align 8
  %9 = icmp eq ptr %8, null
  br i1 %9, label %11, label %10

10:                                               ; preds = %6
  tail call void @_ZdaPv(ptr noundef nonnull %8) #16
  br label %11

11:                                               ; preds = %10, %6
  %12 = getelementptr inbounds i8, ptr %0, i64 8
  %13 = load i64, ptr %12, align 8
  %.not = icmp eq i64 %13, 0
  br i1 %.not, label %.preheader, label %.lr.ph

.preheader:                                       ; preds = %27, %11
  %14 = getelementptr inbounds i8, ptr %0, i64 100
  %15 = load i32, ptr %14, align 4
  %.not16 = icmp eq i32 %15, 0
  br i1 %.not16, label %._crit_edge, label %.lr.ph15

.lr.ph15:                                         ; preds = %.preheader
  %16 = getelementptr inbounds i8, ptr %0, i64 104
  br label %32

.lr.ph:                                           ; preds = %11, %27
  %17 = phi i64 [ %28, %27 ], [ %13, %11 ]
  %18 = phi i64 [ %30, %27 ], [ 0, %11 ]
  %.0613 = phi i32 [ %29, %27 ], [ 0, %11 ]
  %19 = load ptr, ptr %0, align 8
  %20 = getelementptr inbounds %struct.RecVolItem, ptr %19, i64 %18
  %21 = load ptr, ptr %20, align 8
  %22 = icmp eq ptr %21, null
  br i1 %22, label %27, label %23

23:                                               ; preds = %.lr.ph
  %24 = load ptr, ptr %21, align 8
  %25 = getelementptr inbounds i8, ptr %24, i64 8
  %26 = load ptr, ptr %25, align 8
  tail call void %26(ptr noundef nonnull align 8 dereferenceable(8256) %21) #14
  %.pre = load i64, ptr %12, align 8
  br label %27

27:                                               ; preds = %.lr.ph, %23
  %28 = phi i64 [ %17, %.lr.ph ], [ %.pre, %23 ]
  %29 = add i32 %.0613, 1
  %30 = zext i32 %29 to i64
  %31 = icmp ugt i64 %28, %30
  br i1 %31, label %.lr.ph, label %.preheader, !llvm.loop !33

32:                                               ; preds = %.lr.ph15, %39
  %33 = phi i32 [ %15, %.lr.ph15 ], [ %40, %39 ]
  %indvars.iv = phi i64 [ 0, %.lr.ph15 ], [ %indvars.iv.next, %39 ]
  %34 = load ptr, ptr %16, align 8
  %35 = getelementptr inbounds %struct.RecRSThreadData, ptr %34, i64 %indvars.iv, i32 1
  %36 = load ptr, ptr %35, align 8
  %37 = icmp eq ptr %36, null
  br i1 %37, label %39, label %38

38:                                               ; preds = %32
  tail call void @_ZN9RSCoder16D1Ev(ptr noundef nonnull align 8 dereferenceable(64) %36) #14
  tail call void @_ZdlPv(ptr noundef nonnull %36) #16
  %.pre18 = load i32, ptr %14, align 4
  br label %39

39:                                               ; preds = %32, %38
  %40 = phi i32 [ %33, %32 ], [ %.pre18, %38 ]
  %indvars.iv.next = add nuw nsw i64 %indvars.iv, 1
  %41 = zext i32 %40 to i64
  %42 = icmp ult i64 %indvars.iv.next, %41
  br i1 %42, label %32, label %._crit_edge, !llvm.loop !34

._crit_edge:                                      ; preds = %39, %.preheader
  %43 = getelementptr inbounds i8, ptr %0, i64 104
  %44 = load ptr, ptr %43, align 8
  %45 = icmp eq ptr %44, null
  br i1 %45, label %47, label %46

46:                                               ; preds = %._crit_edge
  tail call void @_ZdaPv(ptr noundef nonnull %44) #16
  br label %47

47:                                               ; preds = %46, %._crit_edge
  %48 = load ptr, ptr %0, align 8
  %.not.i = icmp eq ptr %48, null
  br i1 %.not.i, label %_ZN5ArrayI10RecVolItemED2Ev.exit, label %49

49:                                               ; preds = %47
  tail call void @free(ptr noundef nonnull %48) #14
  br label %_ZN5ArrayI10RecVolItemED2Ev.exit

_ZN5ArrayI10RecVolItemED2Ev.exit:                 ; preds = %47, %49
  ret void
}